ccopy_reg
_reconstructor
p0
(csklearn.pipeline
Pipeline
p1
c__builtin__
object
p2
Ntp3
Rp4
(dp5
S'steps'
p6
(lp7
(S'scale'
p8
g0
(csklearn.preprocessing.data
MinMaxScaler
p9
g2
Ntp10
Rp11
(dp12
S'copy'
p13
I01
sS'feature_range'
p14
(I0
I1
tp15
sbtp16
a(S'clf'
p17
g0
(csklearn.ensemble.weight_boosting
AdaBoostClassifier
p18
g2
Ntp19
Rp20
(dp21
S'base_estimator'
p22
g0
(csklearn.tree.tree
DecisionTreeClassifier
p23
g2
Ntp24
Rp25
(dp26
S'splitter'
p27
S'best'
p28
sS'tree_'
p29
NsS'n_features_'
p30
NsS'n_outputs_'
p31
NsS'n_classes_'
p32
NsS'classes_'
p33
NsS'splitter_'
p34
NsS'min_samples_leaf'
p35
I1
sS'max_features'
p36
NsS'random_state'
p37
NsS'criterion'
p38
S'gini'
p39
sS'min_samples_split'
p40
I2
sS'max_depth'
p41
I8
sbsS'estimators_'
p42
(lp43
sS'algorithm'
p44
S'SAMME.R'
p45
sS'learning_rate'
p46
F2.5
sS'n_estimators'
p47
I40
sg37
NsS'estimator_params'
p48
(tsbtp49
asS'named_steps'
p50
(dp51
g17
g20
sg8
g11
ssb.