(lp0
S'poi'
p1
aS'salary'
p2
aS'loan_advances'
p3
aS'bonus'
p4
aS'shared_receipt_with_poi'
p5
aS'exercised_stock_options'
p6
aS'deferred_income'
p7
aS'restricted_stock'
p8
aS'long_term_incentive'
p9
aS'fraction_from_poi'
p10
aS'fraction_to_poi'
p11
aS'poi_ratio'
p12
aS'financial_aggregate'
p13
a.